; Function Attrs: mustprogress uwtable
define void @_ZN3gmx18AnalysisDataHandle10startFrameEiff(ptr noundef nonnull readonly align 8 captures(none) dereferenceable(8) %0, i32 noundef %1, float noundef %2, float noundef %3) local_unnamed_addr #1 align 2 {
  %5 = load ptr, ptr %0, align 8, !tbaa !37
  %.not = icmp eq ptr %5, null
  br i1 %.not, label %6, label %7

6:                                                ; preds = %4
  tail call void @_ZN3gmx8internal13assertHandlerEPKcS2_S2_S2_i(ptr noundef nonnull @.str.9, ptr noundef nonnull @.str.10, ptr noundef nonnull @"__PRETTY_FUNCTION__._ZZN3gmx18AnalysisDataHandle10startFrameEiffENK3$_0clEv", ptr noundef nonnull @.str.2, i32 noundef 220) #15
  unreachable

7:                                                ; preds = %4
  %8 = getelementptr inbounds nuw i8, ptr %5, i64 8
  %9 = load ptr, ptr %8, align 8, !tbaa !26
  %10 = icmp eq ptr %9, null
  br i1 %10, label %12, label %11

11:                                               ; preds = %7
  tail call void @_ZN3gmx8internal13assertHandlerEPKcS2_S2_S2_i(ptr noundef nonnull @.str.11, ptr noundef nonnull @.str.12, ptr noundef nonnull @"__PRETTY_FUNCTION__._ZZN3gmx18AnalysisDataHandle10startFrameEiffENK3$_0clEv", ptr noundef nonnull @.str.2, i32 noundef 222) #15
  unreachable

12:                                               ; preds = %7
  %13 = load ptr, ptr %5, align 8, !tbaa !39
  %14 = getelementptr inbounds nuw i8, ptr %13, i64 16
  %15 = load ptr, ptr %14, align 8, !tbaa !4
  %16 = tail call noundef nonnull align 8 dereferenceable(45) ptr @_ZN3gmx19AnalysisDataStorage10startFrameEiff(ptr noundef nonnull align 8 dereferenceable(8) %15, i32 noundef %1, float noundef %2, float noundef %3)
  %17 = load ptr, ptr %0, align 8, !tbaa !37
  %18 = getelementptr inbounds nuw i8, ptr %17, i64 8
  store ptr %16, ptr %18, align 8, !tbaa !26
  ret void
}